target datalayout = "e-m:e-p270:32:32-p271:32:32-p272:64:64-i64:64-i128:128-f80:128-n8:16:32:64-S128"
target triple = "x86_64-pc-linux-gnu"

%struct.sha512_ctx = type { [8 x i64], [2 x i64], i64, [256 x i8] }

; Function Attrs: nounwind uwtable
define internal void @sha512_process_block(ptr noundef %0, i64 noundef %1, ptr noundef %2) #0 {
  %4 = alloca ptr, align 8
  %5 = alloca i64, align 8
  %6 = alloca ptr, align 8
  %7 = alloca ptr, align 8
  %8 = alloca i64, align 8
  %9 = alloca i64, align 8
  %10 = alloca i64, align 8
  %11 = alloca i64, align 8
  %12 = alloca i64, align 8
  %13 = alloca i64, align 8
  %14 = alloca i64, align 8
  %15 = alloca i64, align 8
  %16 = alloca i64, align 8
  %17 = alloca [80 x i64], align 16
  %18 = alloca i64, align 8
  %19 = alloca i64, align 8
  %20 = alloca i64, align 8
  %21 = alloca i64, align 8
  %22 = alloca i64, align 8
  %23 = alloca i64, align 8
  %24 = alloca i64, align 8
  %25 = alloca i64, align 8
  %26 = alloca i32, align 4
  %27 = alloca i64, align 8
  %28 = alloca i64, align 8
  store ptr %0, ptr %4, align 8
  store i64 %1, ptr %5, align 8
  store ptr %2, ptr %6, align 8
  %29 = load ptr, ptr %4, align 8
  store ptr %29, ptr %7, align 8
  %30 = load i64, ptr %5, align 8
  %31 = udiv i64 %30, 8
  store i64 %31, ptr %8, align 8
  %32 = load ptr, ptr %6, align 8
  %33 = getelementptr inbounds %struct.sha512_ctx, ptr %32, i32 0, i32 0
  %34 = getelementptr inbounds [8 x i64], ptr %33, i64 0, i64 0
  %35 = load i64, ptr %34, align 8
  store i64 %35, ptr %9, align 8
  %36 = load ptr, ptr %6, align 8
  %37 = getelementptr inbounds %struct.sha512_ctx, ptr %36, i32 0, i32 0
  %38 = getelementptr inbounds [8 x i64], ptr %37, i64 0, i64 1
  %39 = load i64, ptr %38, align 8
  store i64 %39, ptr %10, align 8
  %40 = load ptr, ptr %6, align 8
  %41 = getelementptr inbounds %struct.sha512_ctx, ptr %40, i32 0, i32 0
  %42 = getelementptr inbounds [8 x i64], ptr %41, i64 0, i64 2
  %43 = load i64, ptr %42, align 8
  store i64 %43, ptr %11, align 8
  %44 = load ptr, ptr %6, align 8
  %45 = getelementptr inbounds %struct.sha512_ctx, ptr %44, i32 0, i32 0
  %46 = getelementptr inbounds [8 x i64], ptr %45, i64 0, i64 3
  %47 = load i64, ptr %46, align 8
  store i64 %47, ptr %12, align 8
  %48 = load ptr, ptr %6, align 8
  %49 = getelementptr inbounds %struct.sha512_ctx, ptr %48, i32 0, i32 0
  %50 = getelementptr inbounds [8 x i64], ptr %49, i64 0, i64 4
  %51 = load i64, ptr %50, align 8
  store i64 %51, ptr %13, align 8
  %52 = load ptr, ptr %6, align 8
  %53 = getelementptr inbounds %struct.sha512_ctx, ptr %52, i32 0, i32 0
  %54 = getelementptr inbounds [8 x i64], ptr %53, i64 0, i64 5
  %55 = load i64, ptr %54, align 8
  store i64 %55, ptr %14, align 8
  %56 = load ptr, ptr %6, align 8
  %57 = getelementptr inbounds %struct.sha512_ctx, ptr %56, i32 0, i32 0
  %58 = getelementptr inbounds [8 x i64], ptr %57, i64 0, i64 6
  %59 = load i64, ptr %58, align 8
  store i64 %59, ptr %15, align 8
  %60 = load ptr, ptr %6, align 8
  %61 = getelementptr inbounds %struct.sha512_ctx, ptr %60, i32 0, i32 0
  %62 = getelementptr inbounds [8 x i64], ptr %61, i64 0, i64 7
  %63 = load i64, ptr %62, align 8
  store i64 %63, ptr %16, align 8
  %64 = load i64, ptr %5, align 8
  %65 = load ptr, ptr %6, align 8
  %66 = getelementptr inbounds %struct.sha512_ctx, ptr %65, i32 0, i32 1
  %67 = getelementptr inbounds [2 x i64], ptr %66, i64 0, i64 0
  %68 = load i64, ptr %67, align 8
  %69 = add i64 %68, %64
  store i64 %69, ptr %67, align 8
  %70 = load ptr, ptr %6, align 8
  %71 = getelementptr inbounds %struct.sha512_ctx, ptr %70, i32 0, i32 1
  %72 = getelementptr inbounds [2 x i64], ptr %71, i64 0, i64 0
  %73 = load i64, ptr %72, align 8
  %74 = load i64, ptr %5, align 8
  %75 = icmp ult i64 %73, %74
  br i1 %75, label %76, label %82

76:                                               ; preds = %3
  %77 = load ptr, ptr %6, align 8
  %78 = getelementptr inbounds %struct.sha512_ctx, ptr %77, i32 0, i32 1
  %79 = getelementptr inbounds [2 x i64], ptr %78, i64 0, i64 1
  %80 = load i64, ptr %79, align 8
  %81 = add i64 %80, 1
  store i64 %81, ptr %79, align 8
  br label %82

82:                                               ; preds = %76, %3
  br label %83

83:                                               ; preds = %323, %82
  %84 = load i64, ptr %8, align 8
  %85 = icmp ugt i64 %84, 0
  br i1 %85, label %86, label %350

86:                                               ; preds = %83
  %87 = load i64, ptr %9, align 8
  store i64 %87, ptr %18, align 8
  %88 = load i64, ptr %10, align 8
  store i64 %88, ptr %19, align 8
  %89 = load i64, ptr %11, align 8
  store i64 %89, ptr %20, align 8
  %90 = load i64, ptr %12, align 8
  store i64 %90, ptr %21, align 8
  %91 = load i64, ptr %13, align 8
  store i64 %91, ptr %22, align 8
  %92 = load i64, ptr %14, align 8
  store i64 %92, ptr %23, align 8
  %93 = load i64, ptr %15, align 8
  store i64 %93, ptr %24, align 8
  %94 = load i64, ptr %16, align 8
  store i64 %94, ptr %25, align 8
  store i32 0, ptr %26, align 4
  br label %95

95:                                               ; preds = %141, %86
  %96 = load i32, ptr %26, align 4
  %97 = icmp ult i32 %96, 16
  br i1 %97, label %98, label %144

98:                                               ; preds = %95
  %99 = load ptr, ptr %7, align 8
  %100 = load i64, ptr %99, align 8
  %101 = shl i64 %100, 56
  %102 = load ptr, ptr %7, align 8
  %103 = load i64, ptr %102, align 8
  %104 = and i64 %103, 65280
  %105 = shl i64 %104, 40
  %106 = or i64 %101, %105
  %107 = load ptr, ptr %7, align 8
  %108 = load i64, ptr %107, align 8
  %109 = and i64 %108, 16711680
  %110 = shl i64 %109, 24
  %111 = or i64 %106, %110
  %112 = load ptr, ptr %7, align 8
  %113 = load i64, ptr %112, align 8
  %114 = and i64 %113, 4278190080
  %115 = shl i64 %114, 8
  %116 = or i64 %111, %115
  %117 = load ptr, ptr %7, align 8
  %118 = load i64, ptr %117, align 8
  %119 = lshr i64 %118, 8
  %120 = and i64 %119, 4278190080
  %121 = or i64 %116, %120
  %122 = load ptr, ptr %7, align 8
  %123 = load i64, ptr %122, align 8
  %124 = lshr i64 %123, 24
  %125 = and i64 %124, 16711680
  %126 = or i64 %121, %125
  %127 = load ptr, ptr %7, align 8
  %128 = load i64, ptr %127, align 8
  %129 = lshr i64 %128, 40
  %130 = and i64 %129, 65280
  %131 = or i64 %126, %130
  %132 = load ptr, ptr %7, align 8
  %133 = load i64, ptr %132, align 8
  %134 = lshr i64 %133, 56
  %135 = or i64 %131, %134
  %136 = load i32, ptr %26, align 4
  %137 = zext i32 %136 to i64
  %138 = getelementptr inbounds [80 x i64], ptr %17, i64 0, i64 %137
  store i64 %135, ptr %138, align 8
  %139 = load ptr, ptr %7, align 8
  %140 = getelementptr inbounds i64, ptr %139, i32 1
  store ptr %140, ptr %7, align 8
  br label %141

141:                                              ; preds = %98
  %142 = load i32, ptr %26, align 4
  %143 = add i32 %142, 1
  store i32 %143, ptr %26, align 4
  br label %95

144:                                              ; preds = %95
  store i32 16, ptr %26, align 4
  br label %145

145:                                              ; preds = %233, %144
  %146 = load i32, ptr %26, align 4
  %147 = icmp ult i32 %146, 80
  br i1 %147, label %148, label %236

148:                                              ; preds = %145
  %149 = load i32, ptr %26, align 4
  %150 = sub i32 %149, 2
  %151 = zext i32 %150 to i64
  %152 = getelementptr inbounds [80 x i64], ptr %17, i64 0, i64 %151
  %153 = load i64, ptr %152, align 8
  %154 = lshr i64 %153, 19
  %155 = load i32, ptr %26, align 4
  %156 = sub i32 %155, 2
  %157 = zext i32 %156 to i64
  %158 = getelementptr inbounds [80 x i64], ptr %17, i64 0, i64 %157
  %159 = load i64, ptr %158, align 8
  %160 = shl i64 %159, 45
  %161 = or i64 %154, %160
  %162 = load i32, ptr %26, align 4
  %163 = sub i32 %162, 2
  %164 = zext i32 %163 to i64
  %165 = getelementptr inbounds [80 x i64], ptr %17, i64 0, i64 %164
  %166 = load i64, ptr %165, align 8
  %167 = lshr i64 %166, 61
  %168 = load i32, ptr %26, align 4
  %169 = sub i32 %168, 2
  %170 = zext i32 %169 to i64
  %171 = getelementptr inbounds [80 x i64], ptr %17, i64 0, i64 %170
  %172 = load i64, ptr %171, align 8
  %173 = shl i64 %172, 3
  %174 = or i64 %167, %173
  %175 = xor i64 %161, %174
  %176 = load i32, ptr %26, align 4
  %177 = sub i32 %176, 2
  %178 = zext i32 %177 to i64
  %179 = getelementptr inbounds [80 x i64], ptr %17, i64 0, i64 %178
  %180 = load i64, ptr %179, align 8
  %181 = lshr i64 %180, 6
  %182 = xor i64 %175, %181
  %183 = load i32, ptr %26, align 4
  %184 = sub i32 %183, 7
  %185 = zext i32 %184 to i64
  %186 = getelementptr inbounds [80 x i64], ptr %17, i64 0, i64 %185
  %187 = load i64, ptr %186, align 8
  %188 = add i64 %182, %187
  %189 = load i32, ptr %26, align 4
  %190 = sub i32 %189, 15
  %191 = zext i32 %190 to i64
  %192 = getelementptr inbounds [80 x i64], ptr %17, i64 0, i64 %191
  %193 = load i64, ptr %192, align 8
  %194 = lshr i64 %193, 1
  %195 = load i32, ptr %26, align 4
  %196 = sub i32 %195, 15
  %197 = zext i32 %196 to i64
  %198 = getelementptr inbounds [80 x i64], ptr %17, i64 0, i64 %197
  %199 = load i64, ptr %198, align 8
  %200 = shl i64 %199, 63
  %201 = or i64 %194, %200
  %202 = load i32, ptr %26, align 4
  %203 = sub i32 %202, 15
  %204 = zext i32 %203 to i64
  %205 = getelementptr inbounds [80 x i64], ptr %17, i64 0, i64 %204
  %206 = load i64, ptr %205, align 8
  %207 = lshr i64 %206, 8
  %208 = load i32, ptr %26, align 4
  %209 = sub i32 %208, 15
  %210 = zext i32 %209 to i64
  %211 = getelementptr inbounds [80 x i64], ptr %17, i64 0, i64 %210
  %212 = load i64, ptr %211, align 8
  %213 = shl i64 %212, 56
  %214 = or i64 %207, %213
  %215 = xor i64 %201, %214
  %216 = load i32, ptr %26, align 4
  %217 = sub i32 %216, 15
  %218 = zext i32 %217 to i64
  %219 = getelementptr inbounds [80 x i64], ptr %17, i64 0, i64 %218
  %220 = load i64, ptr %219, align 8
  %221 = lshr i64 %220, 7
  %222 = xor i64 %215, %221
  %223 = add i64 %188, %222
  %224 = load i32, ptr %26, align 4
  %225 = sub i32 %224, 16
  %226 = zext i32 %225 to i64
  %227 = getelementptr inbounds [80 x i64], ptr %17, i64 0, i64 %226
  %228 = load i64, ptr %227, align 8
  %229 = add i64 %223, %228
  %230 = load i32, ptr %26, align 4
  %231 = zext i32 %230 to i64
  %232 = getelementptr inbounds [80 x i64], ptr %17, i64 0, i64 %231
  store i64 %229, ptr %232, align 8
  br label %233

233:                                              ; preds = %148
  %234 = load i32, ptr %26, align 4
  %235 = add i32 %234, 1
  store i32 %235, ptr %26, align 4
  br label %145

236:                                              ; preds = %145
  store i32 0, ptr %26, align 4
  br label %237

237:                                              ; preds = %320, %236
  %238 = load i32, ptr %26, align 4
  %239 = icmp ult i32 %238, 80
  br i1 %239, label %240, label %323

240:                                              ; preds = %237
  %241 = load i64, ptr %16, align 8
  %242 = load i64, ptr %13, align 8
  %243 = lshr i64 %242, 14
  %244 = load i64, ptr %13, align 8
  %245 = shl i64 %244, 50
  %246 = or i64 %243, %245
  %247 = load i64, ptr %13, align 8
  %248 = lshr i64 %247, 18
  %249 = load i64, ptr %13, align 8
  %250 = shl i64 %249, 46
  %251 = or i64 %248, %250
  %252 = xor i64 %246, %251
  %253 = load i64, ptr %13, align 8
  %254 = lshr i64 %253, 41
  %255 = load i64, ptr %13, align 8
  %256 = shl i64 %255, 23
  %257 = or i64 %254, %256
  %258 = xor i64 %252, %257
  %259 = add i64 %241, %258
  %260 = load i64, ptr %13, align 8
  %261 = load i64, ptr %14, align 8
  %262 = and i64 %260, %261
  %263 = load i64, ptr %13, align 8
  %264 = xor i64 %263, -1
  %265 = load i64, ptr %15, align 8
  %266 = and i64 %264, %265
  %267 = xor i64 %262, %266
  %268 = add i64 %259, %267
  %269 = load i32, ptr %26, align 4
  %270 = zext i32 %269 to i64
  %271 = getelementptr inbounds [80 x i64], ptr @K, i64 0, i64 %270
  %272 = load i64, ptr %271, align 8
  %273 = add i64 %268, %272
  %274 = load i32, ptr %26, align 4
  %275 = zext i32 %274 to i64
  %276 = getelementptr inbounds [80 x i64], ptr %17, i64 0, i64 %275
  %277 = load i64, ptr %276, align 8
  %278 = add i64 %273, %277
  store i64 %278, ptr %27, align 8
  %279 = load i64, ptr %9, align 8
  %280 = lshr i64 %279, 28
  %281 = load i64, ptr %9, align 8
  %282 = shl i64 %281, 36
  %283 = or i64 %280, %282
  %284 = load i64, ptr %9, align 8
  %285 = lshr i64 %284, 34
  %286 = load i64, ptr %9, align 8
  %287 = shl i64 %286, 30
  %288 = or i64 %285, %287
  %289 = xor i64 %283, %288
  %290 = load i64, ptr %9, align 8
  %291 = lshr i64 %290, 39
  %292 = load i64, ptr %9, align 8
  %293 = shl i64 %292, 25
  %294 = or i64 %291, %293
  %295 = xor i64 %289, %294
  %296 = load i64, ptr %9, align 8
  %297 = load i64, ptr %10, align 8
  %298 = and i64 %296, %297
  %299 = load i64, ptr %9, align 8
  %300 = load i64, ptr %11, align 8
  %301 = and i64 %299, %300
  %302 = xor i64 %298, %301
  %303 = load i64, ptr %10, align 8
  %304 = load i64, ptr %11, align 8
  %305 = and i64 %303, %304
  %306 = xor i64 %302, %305
  %307 = add i64 %295, %306
  store i64 %307, ptr %28, align 8
  %308 = load i64, ptr %15, align 8
  store i64 %308, ptr %16, align 8
  %309 = load i64, ptr %14, align 8
  store i64 %309, ptr %15, align 8
  %310 = load i64, ptr %13, align 8
  store i64 %310, ptr %14, align 8
  %311 = load i64, ptr %12, align 8
  %312 = load i64, ptr %27, align 8
  %313 = add i64 %311, %312
  store i64 %313, ptr %13, align 8
  %314 = load i64, ptr %11, align 8
  store i64 %314, ptr %12, align 8
  %315 = load i64, ptr %10, align 8
  store i64 %315, ptr %11, align 8
  %316 = load i64, ptr %9, align 8
  store i64 %316, ptr %10, align 8
  %317 = load i64, ptr %27, align 8
  %318 = load i64, ptr %28, align 8
  %319 = add i64 %317, %318
  store i64 %319, ptr %9, align 8
  br label %320

320:                                              ; preds = %240
  %321 = load i32, ptr %26, align 4
  %322 = add i32 %321, 1
  store i32 %322, ptr %26, align 4
  br label %237

323:                                              ; preds = %237
  %324 = load i64, ptr %18, align 8
  %325 = load i64, ptr %9, align 8
  %326 = add i64 %325, %324
  store i64 %326, ptr %9, align 8
  %327 = load i64, ptr %19, align 8
  %328 = load i64, ptr %10, align 8
  %329 = add i64 %328, %327
  store i64 %329, ptr %10, align 8
  %330 = load i64, ptr %20, align 8
  %331 = load i64, ptr %11, align 8
  %332 = add i64 %331, %330
  store i64 %332, ptr %11, align 8
  %333 = load i64, ptr %21, align 8
  %334 = load i64, ptr %12, align 8
  %335 = add i64 %334, %333
  store i64 %335, ptr %12, align 8
  %336 = load i64, ptr %22, align 8
  %337 = load i64, ptr %13, align 8
  %338 = add i64 %337, %336
  store i64 %338, ptr %13, align 8
  %339 = load i64, ptr %23, align 8
  %340 = load i64, ptr %14, align 8
  %341 = add i64 %340, %339
  store i64 %341, ptr %14, align 8
  %342 = load i64, ptr %24, align 8
  %343 = load i64, ptr %15, align 8
  %344 = add i64 %343, %342
  store i64 %344, ptr %15, align 8
  %345 = load i64, ptr %25, align 8
  %346 = load i64, ptr %16, align 8
  %347 = add i64 %346, %345
  store i64 %347, ptr %16, align 8
  %348 = load i64, ptr %8, align 8
  %349 = sub i64 %348, 16
  store i64 %349, ptr %8, align 8
  br label %83

350:                                              ; preds = %83
  %351 = load i64, ptr %9, align 8
  %352 = load ptr, ptr %6, align 8
  %353 = getelementptr inbounds %struct.sha512_ctx, ptr %352, i32 0, i32 0
  %354 = getelementptr inbounds [8 x i64], ptr %353, i64 0, i64 0
  store i64 %351, ptr %354, align 8
  %355 = load i64, ptr %10, align 8
  %356 = load ptr, ptr %6, align 8
  %357 = getelementptr inbounds %struct.sha512_ctx, ptr %356, i32 0, i32 0
  %358 = getelementptr inbounds [8 x i64], ptr %357, i64 0, i64 1
  store i64 %355, ptr %358, align 8
  %359 = load i64, ptr %11, align 8
  %360 = load ptr, ptr %6, align 8
  %361 = getelementptr inbounds %struct.sha512_ctx, ptr %360, i32 0, i32 0
  %362 = getelementptr inbounds [8 x i64], ptr %361, i64 0, i64 2
  store i64 %359, ptr %362, align 8
  %363 = load i64, ptr %12, align 8
  %364 = load ptr, ptr %6, align 8
  %365 = getelementptr inbounds %struct.sha512_ctx, ptr %364, i32 0, i32 0
  %366 = getelementptr inbounds [8 x i64], ptr %365, i64 0, i64 3
  store i64 %363, ptr %366, align 8
  %367 = load i64, ptr %13, align 8
  %368 = load ptr, ptr %6, align 8
  %369 = getelementptr inbounds %struct.sha512_ctx, ptr %368, i32 0, i32 0
  %370 = getelementptr inbounds [8 x i64], ptr %369, i64 0, i64 4
  store i64 %367, ptr %370, align 8
  %371 = load i64, ptr %14, align 8
  %372 = load ptr, ptr %6, align 8
  %373 = getelementptr inbounds %struct.sha512_ctx, ptr %372, i32 0, i32 0
  %374 = getelementptr inbounds [8 x i64], ptr %373, i64 0, i64 5
  store i64 %371, ptr %374, align 8
  %375 = load i64, ptr %15, align 8
  %376 = load ptr, ptr %6, align 8
  %377 = getelementptr inbounds %struct.sha512_ctx, ptr %376, i32 0, i32 0
  %378 = getelementptr inbounds [8 x i64], ptr %377, i64 0, i64 6
  store i64 %375, ptr %378, align 8
  %379 = load i64, ptr %16, align 8
  %380 = load ptr, ptr %6, align 8
  %381 = getelementptr inbounds %struct.sha512_ctx, ptr %380, i32 0, i32 0
  %382 = getelementptr inbounds [8 x i64], ptr %381, i64 0, i64 7
  store i64 %379, ptr %382, align 8
  ret void
}