; Function Attrs: nofree norecurse nosync nounwind memory(read, argmem: readwrite, inaccessiblemem: none) uwtable
define internal fastcc void @sha512_process_block(ptr nocapture noundef readonly %0, i64 noundef %1, ptr nocapture noundef %2) unnamed_addr #6 {
  %4 = alloca [80 x i64], align 16
  %5 = lshr i64 %1, 3
  %6 = load i64, ptr %2, align 8
  %7 = getelementptr inbounds i8, ptr %2, i64 8
  %8 = load i64, ptr %7, align 8
  %9 = getelementptr inbounds i8, ptr %2, i64 16
  %10 = load i64, ptr %9, align 8
  %11 = getelementptr inbounds i8, ptr %2, i64 24
  %12 = load i64, ptr %11, align 8
  %13 = getelementptr inbounds i8, ptr %2, i64 32
  %14 = load i64, ptr %13, align 8
  %15 = getelementptr inbounds i8, ptr %2, i64 40
  %16 = load i64, ptr %15, align 8
  %17 = getelementptr inbounds i8, ptr %2, i64 48
  %18 = load i64, ptr %17, align 8
  %19 = getelementptr inbounds i8, ptr %2, i64 56
  %20 = load i64, ptr %19, align 8
  %21 = getelementptr inbounds i8, ptr %2, i64 64
  %22 = load i64, ptr %21, align 8
  %23 = add i64 %22, %1
  store i64 %23, ptr %21, align 8
  %24 = icmp ult i64 %23, %1
  br i1 %24, label %25, label %29

25:                                               ; preds = %3
  %26 = getelementptr inbounds i8, ptr %2, i64 72
  %27 = load i64, ptr %26, align 8
  %28 = add i64 %27, 1
  store i64 %28, ptr %26, align 8
  br label %29

29:                                               ; preds = %25, %3
  %.not153 = icmp ult i64 %1, 8
  br i1 %.not153, label %._crit_edge, label %.preheader140

.preheader140:                                    ; preds = %29, %89
  %.0163 = phi ptr [ %34, %89 ], [ %0, %29 ]
  %.0120162 = phi i64 [ %98, %89 ], [ %5, %29 ]
  %.0123161 = phi i64 [ %90, %89 ], [ %6, %29 ]
  %.0125160 = phi i64 [ %91, %89 ], [ %8, %29 ]
  %.0127159 = phi i64 [ %92, %89 ], [ %10, %29 ]
  %.0129158 = phi i64 [ %93, %89 ], [ %12, %29 ]
  %.0131157 = phi i64 [ %94, %89 ], [ %14, %29 ]
  %.0133156 = phi i64 [ %95, %89 ], [ %16, %29 ]
  %.0135155 = phi i64 [ %96, %89 ], [ %18, %29 ]
  %.0137154 = phi i64 [ %97, %89 ], [ %20, %29 ]
  br label %30

.preheader139:                                    ; preds = %30
  %.pre = load i64, ptr %4, align 16
  br label %35

30:                                               ; preds = %.preheader140, %30
  %indvars.iv = phi i64 [ 0, %.preheader140 ], [ %indvars.iv.next, %30 ]
  %.1142 = phi ptr [ %.0163, %.preheader140 ], [ %34, %30 ]
  %31 = load i64, ptr %.1142, align 8
  %32 = tail call i64 @llvm.bswap.i64(i64 %31)
  %33 = getelementptr inbounds [80 x i64], ptr %4, i64 0, i64 %indvars.iv
  store i64 %32, ptr %33, align 8
  %34 = getelementptr inbounds i8, ptr %.1142, i64 8
  %indvars.iv.next = add nuw nsw i64 %indvars.iv, 1
  %exitcond.not = icmp eq i64 %indvars.iv.next, 16
  br i1 %exitcond.not, label %.preheader139, label %30

35:                                               ; preds = %.preheader139, %35
  %36 = phi i64 [ %.pre, %.preheader139 ], [ %51, %35 ]
  %indvars.iv182 = phi i64 [ 16, %.preheader139 ], [ %indvars.iv.next183, %35 ]
  %37 = add nsw i64 %indvars.iv182, -2
  %38 = getelementptr inbounds [80 x i64], ptr %4, i64 0, i64 %37
  %39 = load i64, ptr %38, align 8
  %40 = tail call i64 @llvm.fshl.i64(i64 %39, i64 %39, i64 45)
  %41 = tail call i64 @llvm.fshl.i64(i64 %39, i64 %39, i64 3)
  %42 = xor i64 %40, %41
  %43 = lshr i64 %39, 6
  %44 = xor i64 %42, %43
  %45 = add nsw i64 %indvars.iv182, -7
  %46 = getelementptr inbounds [80 x i64], ptr %4, i64 0, i64 %45
  %47 = load i64, ptr %46, align 8
  %48 = add i64 %44, %47
  %49 = add nsw i64 %indvars.iv182, -15
  %50 = getelementptr inbounds [80 x i64], ptr %4, i64 0, i64 %49
  %51 = load i64, ptr %50, align 8
  %52 = tail call i64 @llvm.fshl.i64(i64 %51, i64 %51, i64 63)
  %53 = tail call i64 @llvm.fshl.i64(i64 %51, i64 %51, i64 56)
  %54 = xor i64 %52, %53
  %55 = lshr i64 %51, 7
  %56 = xor i64 %54, %55
  %57 = add i64 %48, %36
  %58 = add i64 %57, %56
  %59 = getelementptr inbounds [80 x i64], ptr %4, i64 0, i64 %indvars.iv182
  store i64 %58, ptr %59, align 8
  %indvars.iv.next183 = add nuw nsw i64 %indvars.iv182, 1
  %exitcond185.not = icmp eq i64 %indvars.iv.next183, 80
  br i1 %exitcond185.not, label %.preheader, label %35

.preheader:                                       ; preds = %35, %.preheader
  %indvars.iv186 = phi i64 [ %indvars.iv.next187, %.preheader ], [ 0, %35 ]
  %.1124151 = phi i64 [ %88, %.preheader ], [ %.0123161, %35 ]
  %.1126150 = phi i64 [ %.1124151, %.preheader ], [ %.0125160, %35 ]
  %.1128149 = phi i64 [ %.1126150, %.preheader ], [ %.0127159, %35 ]
  %.1130148 = phi i64 [ %.1128149, %.preheader ], [ %.0129158, %35 ]
  %.1132147 = phi i64 [ %87, %.preheader ], [ %.0131157, %35 ]
  %.1134146 = phi i64 [ %.1132147, %.preheader ], [ %.0133156, %35 ]
  %.1136145 = phi i64 [ %.1134146, %.preheader ], [ %.0135155, %35 ]
  %.1138144 = phi i64 [ %.1136145, %.preheader ], [ %.0137154, %35 ]
  %60 = tail call i64 @llvm.fshl.i64(i64 %.1132147, i64 %.1132147, i64 50)
  %61 = tail call i64 @llvm.fshl.i64(i64 %.1132147, i64 %.1132147, i64 46)
  %62 = xor i64 %60, %61
  %63 = tail call i64 @llvm.fshl.i64(i64 %.1132147, i64 %.1132147, i64 23)
  %64 = xor i64 %62, %63
  %65 = and i64 %.1132147, %.1134146
  %66 = xor i64 %.1132147, -1
  %67 = and i64 %.1136145, %66
  %68 = getelementptr inbounds [80 x i64], ptr @K, i64 0, i64 %indvars.iv186
  %69 = load i64, ptr %68, align 8
  %70 = getelementptr inbounds [80 x i64], ptr %4, i64 0, i64 %indvars.iv186
  %71 = load i64, ptr %70, align 8
  %72 = add i64 %67, %.1138144
  %73 = add i64 %72, %65
  %74 = add i64 %73, %64
  %75 = add i64 %74, %69
  %76 = add i64 %75, %71
  %77 = tail call i64 @llvm.fshl.i64(i64 %.1124151, i64 %.1124151, i64 36)
  %78 = tail call i64 @llvm.fshl.i64(i64 %.1124151, i64 %.1124151, i64 30)
  %79 = xor i64 %77, %78
  %80 = tail call i64 @llvm.fshl.i64(i64 %.1124151, i64 %.1124151, i64 25)
  %81 = xor i64 %79, %80
  %82 = xor i64 %.1126150, %.1128149
  %83 = and i64 %.1124151, %82
  %84 = and i64 %.1126150, %.1128149
  %85 = xor i64 %83, %84
  %86 = add i64 %81, %85
  %87 = add i64 %76, %.1130148
  %88 = add i64 %86, %76
  %indvars.iv.next187 = add nuw nsw i64 %indvars.iv186, 1
  %exitcond189.not = icmp eq i64 %indvars.iv.next187, 80
  br i1 %exitcond189.not, label %89, label %.preheader

89:                                               ; preds = %.preheader
  %90 = add i64 %88, %.0123161
  %91 = add i64 %.1124151, %.0125160
  %92 = add i64 %.1126150, %.0127159
  %93 = add i64 %.1128149, %.0129158
  %94 = add i64 %87, %.0131157
  %95 = add i64 %.1132147, %.0133156
  %96 = add i64 %.1134146, %.0135155
  %97 = add i64 %.1136145, %.0137154
  %98 = add i64 %.0120162, -16
  %.not = icmp eq i64 %98, 0
  br i1 %.not, label %._crit_edge, label %.preheader140

._crit_edge:                                      ; preds = %89, %29
  %.0137.lcssa = phi i64 [ %20, %29 ], [ %97, %89 ]
  %.0135.lcssa = phi i64 [ %18, %29 ], [ %96, %89 ]
  %.0133.lcssa = phi i64 [ %16, %29 ], [ %95, %89 ]
  %.0131.lcssa = phi i64 [ %14, %29 ], [ %94, %89 ]
  %.0129.lcssa = phi i64 [ %12, %29 ], [ %93, %89 ]
  %.0127.lcssa = phi i64 [ %10, %29 ], [ %92, %89 ]
  %.0125.lcssa = phi i64 [ %8, %29 ], [ %91, %89 ]
  %.0123.lcssa = phi i64 [ %6, %29 ], [ %90, %89 ]
  store i64 %.0123.lcssa, ptr %2, align 8
  store i64 %.0125.lcssa, ptr %7, align 8
  store i64 %.0127.lcssa, ptr %9, align 8
  store i64 %.0129.lcssa, ptr %11, align 8
  store i64 %.0131.lcssa, ptr %13, align 8
  store i64 %.0133.lcssa, ptr %15, align 8
  store i64 %.0135.lcssa, ptr %17, align 8
  store i64 %.0137.lcssa, ptr %19, align 8
  ret void
}